target datalayout = "e-m:e-p270:32:32-p271:32:32-p272:64:64-i64:64-i128:128-f80:128-n8:16:32:64-S128"
target triple = "x86_64-pc-linux-gnu"

%struct.expert_field = type { i32, i32 }
%struct._dcerpc_info = type { ptr, i32, i64, i8, i32, i32, i32, i32, i32, i32, i32, i32, i32, i32, ptr, ptr, ptr }

@ett_USER_LEVEL_CTR = internal global i32 0, align 4
@.str.3 = private unnamed_addr constant [21 x i8] c"User level container\00", align 1
@hf_level = internal global i32 0, align 4
@.str.4 = private unnamed_addr constant [13 x i8] c"User level 1\00", align 1
@ei_level = internal global %struct.expert_field zeroinitializer, align 4
@.str.5 = private unnamed_addr constant [26 x i8] c"Info level %d not decoded\00", align 1

; Function Attrs: nounwind uwtable
define hidden i32 @dissect_USER_LEVEL_CTR(ptr noundef %0, i32 noundef %1, ptr noundef %2, ptr noundef %3, ptr noundef %4, ptr noundef %5) #0 {
  %7 = alloca i32, align 4
  %8 = alloca ptr, align 8
  %9 = alloca i32, align 4
  %10 = alloca ptr, align 8
  %11 = alloca ptr, align 8
  %12 = alloca ptr, align 8
  %13 = alloca ptr, align 8
  %14 = alloca ptr, align 8
  %15 = alloca ptr, align 8
  %16 = alloca i32, align 4
  store ptr %0, ptr %8, align 8
  store i32 %1, ptr %9, align 4
  store ptr %2, ptr %10, align 8
  store ptr %3, ptr %11, align 8
  store ptr %4, ptr %12, align 8
  store ptr %5, ptr %13, align 8
  %17 = load ptr, ptr %12, align 8
  %18 = getelementptr inbounds %struct._dcerpc_info, ptr %17, i32 0, i32 4
  %19 = load i32, ptr %18, align 4
  %20 = icmp ne i32 %19, 0
  br i1 %20, label %21, label %23

21:                                               ; preds = %6
  %22 = load i32, ptr %9, align 4
  store i32 %22, ptr %7, align 4
  br label %53

23:                                               ; preds = %6
  %24 = load ptr, ptr %11, align 8
  %25 = load ptr, ptr %8, align 8
  %26 = load i32, ptr %9, align 4
  %27 = load i32, ptr @ett_USER_LEVEL_CTR, align 4
  %28 = call ptr @proto_tree_add_subtree(ptr noundef %24, ptr noundef %25, i32 noundef %26, i32 noundef 0, i32 noundef %27, ptr noundef %15, ptr noundef @.str.3)
  store ptr %28, ptr %14, align 8
  %29 = load ptr, ptr %8, align 8
  %30 = load i32, ptr %9, align 4
  %31 = load ptr, ptr %10, align 8
  %32 = load ptr, ptr %14, align 8
  %33 = load ptr, ptr %12, align 8
  %34 = load ptr, ptr %13, align 8
  %35 = load i32, ptr @hf_level, align 4
  %36 = call i32 @dissect_ndr_uint32(ptr noundef %29, i32 noundef %30, ptr noundef %31, ptr noundef %32, ptr noundef %33, ptr noundef %34, i32 noundef %35, ptr noundef %16)
  store i32 %36, ptr %9, align 4
  %37 = load i32, ptr %16, align 4
  switch i32 %37, label %46 [
    i32 1, label %38
  ]

38:                                               ; preds = %23
  %39 = load ptr, ptr %8, align 8
  %40 = load i32, ptr %9, align 4
  %41 = load ptr, ptr %10, align 8
  %42 = load ptr, ptr %14, align 8
  %43 = load ptr, ptr %12, align 8
  %44 = load ptr, ptr %13, align 8
  %45 = call i32 @dissect_ndr_pointer(ptr noundef %39, i32 noundef %40, ptr noundef %41, ptr noundef %42, ptr noundef %43, ptr noundef %44, ptr noundef @dissect_USER_LEVEL_1, i32 noundef 2, ptr noundef @.str.4, i32 noundef -1)
  store i32 %45, ptr %9, align 4
  br label %51

46:                                               ; preds = %23
  %47 = load ptr, ptr %10, align 8
  %48 = load ptr, ptr %15, align 8
  %49 = load i32, ptr %16, align 4
  %50 = call ptr (ptr, ptr, ptr, ptr, ...) @expert_add_info_format(ptr noundef %47, ptr noundef %48, ptr noundef @ei_level, ptr noundef @.str.5, i32 noundef %49)
  br label %51

51:                                               ; preds = %46, %38
  %52 = load i32, ptr %9, align 4
  store i32 %52, ptr %7, align 4
  br label %53

53:                                               ; preds = %51, %21
  %54 = load i32, ptr %7, align 4
  ret i32 %54
}