; Function Attrs: nounwind uwtable
define hidden i32 @dissect_USER_LEVEL_CTR(ptr noundef %0, i32 noundef %1, ptr noundef %2, ptr noundef %3, ptr noundef %4, ptr noundef %5) local_unnamed_addr #0 {
  %7 = alloca ptr, align 8
  %8 = alloca i32, align 4
  %9 = getelementptr inbounds nuw i8, ptr %4, i64 28
  %10 = load i32, ptr %9, align 4
  %.not = icmp eq i32 %10, 0
  br i1 %.not, label %11, label %22

11:                                               ; preds = %6
  %12 = load i32, ptr @ett_USER_LEVEL_CTR, align 4
  %13 = call ptr @proto_tree_add_subtree(ptr noundef %3, ptr noundef %0, i32 noundef %1, i32 noundef 0, i32 noundef %12, ptr noundef nonnull %7, ptr noundef nonnull @.str.3) #5
  %14 = load i32, ptr @hf_level, align 4
  %15 = call i32 @dissect_ndr_uint32(ptr noundef %0, i32 noundef %1, ptr noundef %2, ptr noundef %13, ptr noundef nonnull %4, ptr noundef %5, i32 noundef %14, ptr noundef nonnull %8) #5
  %16 = load i32, ptr %8, align 4
  %cond = icmp eq i32 %16, 1
  br i1 %cond, label %17, label %19

17:                                               ; preds = %11
  %18 = call i32 @dissect_ndr_pointer(ptr noundef %0, i32 noundef %15, ptr noundef %2, ptr noundef %13, ptr noundef nonnull %4, ptr noundef %5, ptr noundef nonnull @dissect_USER_LEVEL_1, i32 noundef 2, ptr noundef nonnull @.str.4, i32 noundef -1) #5
  br label %22

19:                                               ; preds = %11
  %20 = load ptr, ptr %7, align 8
  %21 = call ptr (ptr, ptr, ptr, ptr, ...) @expert_add_info_format(ptr noundef %2, ptr noundef %20, ptr noundef nonnull @ei_level, ptr noundef nonnull @.str.5, i32 noundef %16) #5
  br label %22

22:                                               ; preds = %17, %19, %6
  %.0 = phi i32 [ %1, %6 ], [ %18, %17 ], [ %15, %19 ]
  ret i32 %.0
}